target datalayout = "e-m:e-p270:32:32-p271:32:32-p272:64:64-i64:64-i128:128-f80:128-n8:16:32:64-S128"
target triple = "x86_64-pc-linux-gnu"

%struct.Hop_Obj_t_ = type { %union.anon.2, %union.anon.3, ptr, ptr, i32, i32 }
%union.anon.2 = type { ptr }
%union.anon.3 = type { ptr }

; Function Attrs: inlinehint nounwind uwtable
define internal ptr @Hop_Regular(ptr noundef %0) #6 {
  %2 = alloca ptr, align 8
  store ptr %0, ptr %2, align 8, !tbaa !113
  %3 = load ptr, ptr %2, align 8, !tbaa !113
  %4 = ptrtoint ptr %3 to i64
  %5 = and i64 %4, -2
  %6 = inttoptr i64 %5 to ptr
  ret ptr %6
}

; Function Attrs: inlinehint nounwind uwtable
define internal void @Hop_ObjClearMarkA(ptr noundef %0) #6 {
  %2 = alloca ptr, align 8
  store ptr %0, ptr %2, align 8, !tbaa !113
  %3 = load ptr, ptr %2, align 8, !tbaa !113
  %4 = getelementptr inbounds nuw %struct.Hop_Obj_t_, ptr %3, i32 0, i32 4
  %5 = load i32, ptr %4, align 8
  %6 = and i32 %5, -17
  %7 = or i32 %6, 0
  store i32 %7, ptr %4, align 8
  ret void
}

; Function Attrs: inlinehint nounwind uwtable
define internal ptr @Hop_ObjFanin1(ptr noundef %0) #6 {
  %2 = alloca ptr, align 8
  store ptr %0, ptr %2, align 8, !tbaa !113
  %3 = load ptr, ptr %2, align 8, !tbaa !113
  %4 = getelementptr inbounds nuw %struct.Hop_Obj_t_, ptr %3, i32 0, i32 3
  %5 = load ptr, ptr %4, align 8, !tbaa !115
  %6 = call ptr @Hop_Regular(ptr noundef %5)
  ret ptr %6
}

; Function Attrs: inlinehint nounwind uwtable
define internal ptr @Hop_ObjFanin0(ptr noundef %0) #6 {
  %2 = alloca ptr, align 8
  store ptr %0, ptr %2, align 8, !tbaa !113
  %3 = load ptr, ptr %2, align 8, !tbaa !113
  %4 = getelementptr inbounds nuw %struct.Hop_Obj_t_, ptr %3, i32 0, i32 2
  %5 = load ptr, ptr %4, align 8, !tbaa !114
  %6 = call ptr @Hop_Regular(ptr noundef %5)
  ret ptr %6
}

; Function Attrs: inlinehint nounwind uwtable
define internal i32 @Hop_ObjIsMarkA(ptr noundef %0) #6 {
  %2 = alloca ptr, align 8
  store ptr %0, ptr %2, align 8, !tbaa !113
  %3 = load ptr, ptr %2, align 8, !tbaa !113
  %4 = getelementptr inbounds nuw %struct.Hop_Obj_t_, ptr %3, i32 0, i32 4
  %5 = load i32, ptr %4, align 8
  %6 = lshr i32 %5, 4
  %7 = and i32 %6, 1
  ret i32 %7
}

; Function Attrs: inlinehint nounwind uwtable
define internal i32 @Hop_ObjIsNode(ptr noundef %0) #6 {
  %2 = alloca ptr, align 8
  store ptr %0, ptr %2, align 8, !tbaa !113
  %3 = load ptr, ptr %2, align 8, !tbaa !113
  %4 = getelementptr inbounds nuw %struct.Hop_Obj_t_, ptr %3, i32 0, i32 4
  %5 = load i32, ptr %4, align 8
  %6 = and i32 %5, 7
  %7 = icmp eq i32 %6, 4
  br i1 %7, label %14, label %8

8:                                                ; preds = %1
  %9 = load ptr, ptr %2, align 8, !tbaa !113
  %10 = getelementptr inbounds nuw %struct.Hop_Obj_t_, ptr %9, i32 0, i32 4
  %11 = load i32, ptr %10, align 8
  %12 = and i32 %11, 7
  %13 = icmp eq i32 %12, 5
  br label %14

14:                                               ; preds = %8, %1
  %15 = phi i1 [ true, %1 ], [ %13, %8 ]
  %16 = zext i1 %15 to i32
  ret i32 %16
}

; Function Attrs: nounwind uwtable
define void @Abc_ConvertAigToBdd_rec2(ptr noundef %0, ptr noundef %1) #0 {
  %3 = alloca ptr, align 8
  %4 = alloca ptr, align 8
  store ptr %0, ptr %3, align 8, !tbaa !15
  store ptr %1, ptr %4, align 8, !tbaa !113
  %5 = load ptr, ptr %4, align 8, !tbaa !113
  %6 = call i32 @Hop_ObjIsNode(ptr noundef %5)
  %7 = icmp ne i32 %6, 0
  br i1 %7, label %8, label %12

8:                                                ; preds = %2
  %9 = load ptr, ptr %4, align 8, !tbaa !113
  %10 = call i32 @Hop_ObjIsMarkA(ptr noundef %9)
  %11 = icmp ne i32 %10, 0
  br i1 %11, label %13, label %12

12:                                               ; preds = %8, %2
  br label %27

13:                                               ; preds = %8
  %14 = load ptr, ptr %3, align 8, !tbaa !15
  %15 = load ptr, ptr %4, align 8, !tbaa !113
  %16 = call ptr @Hop_ObjFanin0(ptr noundef %15)
  call void @Abc_ConvertAigToBdd_rec2(ptr noundef %14, ptr noundef %16)
  %17 = load ptr, ptr %3, align 8, !tbaa !15
  %18 = load ptr, ptr %4, align 8, !tbaa !113
  %19 = call ptr @Hop_ObjFanin1(ptr noundef %18)
  call void @Abc_ConvertAigToBdd_rec2(ptr noundef %17, ptr noundef %19)
  %20 = load ptr, ptr %3, align 8, !tbaa !15
  %21 = load ptr, ptr %4, align 8, !tbaa !113
  %22 = getelementptr inbounds nuw %struct.Hop_Obj_t_, ptr %21, i32 0, i32 0
  %23 = load ptr, ptr %22, align 8, !tbaa !12
  call void @Cudd_RecursiveDeref(ptr noundef %20, ptr noundef %23)
  %24 = load ptr, ptr %4, align 8, !tbaa !113
  %25 = getelementptr inbounds nuw %struct.Hop_Obj_t_, ptr %24, i32 0, i32 0
  store ptr null, ptr %25, align 8, !tbaa !12
  %26 = load ptr, ptr %4, align 8, !tbaa !113
  call void @Hop_ObjClearMarkA(ptr noundef %26)
  br label %27

27:                                               ; preds = %13, %12
  ret void
}