; Function Attrs: nounwind uwtable
define void @Abc_ConvertAigToBdd_rec2(ptr noundef %0, ptr noundef captures(none) %1) local_unnamed_addr #2 {
  %3 = getelementptr i8, ptr %1, i64 32
  %.val = load i32, ptr %3, align 8
  %4 = and i32 %.val, 22
  %or.cond.not = icmp eq i32 %4, 20
  br i1 %or.cond.not, label %5, label %common.ret14

common.ret14:                                     ; preds = %2, %5
  ret void

5:                                                ; preds = %2
  %6 = getelementptr i8, ptr %1, i64 16
  %.val12 = load ptr, ptr %6, align 8, !tbaa !95
  %7 = ptrtoint ptr %.val12 to i64
  %8 = and i64 %7, -2
  %9 = inttoptr i64 %8 to ptr
  tail call void @Abc_ConvertAigToBdd_rec2(ptr noundef %0, ptr noundef %9)
  %10 = getelementptr i8, ptr %1, i64 24
  %.val13 = load ptr, ptr %10, align 8, !tbaa !96
  %11 = ptrtoint ptr %.val13 to i64
  %12 = and i64 %11, -2
  %13 = inttoptr i64 %12 to ptr
  tail call void @Abc_ConvertAigToBdd_rec2(ptr noundef %0, ptr noundef %13)
  %14 = load ptr, ptr %1, align 8, !tbaa !3
  tail call void @Cudd_RecursiveDeref(ptr noundef %0, ptr noundef %14) #17
  store ptr null, ptr %1, align 8, !tbaa !3
  %15 = load i32, ptr %3, align 8
  %16 = and i32 %15, -17
  store i32 %16, ptr %3, align 8
  br label %common.ret14
}